; Function Attrs: mustprogress uwtable
define noundef nonnull align 8 dereferenceable(64) ptr @_ZN6icu_778Collator14getDisplayNameERKNS_6LocaleES3_RNS_13UnicodeStringE(ptr noundef nonnull align 8 dereferenceable(217) %0, ptr noundef nonnull align 8 dereferenceable(217) %1, ptr noundef nonnull align 8 dereferenceable(64) %2) local_unnamed_addr #5 align 2 personality ptr @__gxx_personality_v0 {
  %4 = alloca %"class.icu_77::UnicodeString", align 8
  %5 = load atomic i32, ptr @_ZL16gServiceInitOnce acquire, align 4
  %.not.i = icmp eq i32 %5, 0
  br i1 %.not.i, label %_ZN6icu_77L10hasServiceEv.exit.thread, label %6

6:                                                ; preds = %3
  %7 = load atomic i32, ptr @_ZL16gServiceInitOnce acquire, align 4
  %8 = icmp eq i32 %7, 2
  br i1 %8, label %_ZN6icu_77L10hasServiceEv.exit, label %9

9:                                                ; preds = %6
  %10 = tail call noundef signext i8 @_ZN6icu_7720umtx_initImplPreInitERNS_9UInitOnceE(ptr noundef nonnull align 4 dereferenceable(8) @_ZL16gServiceInitOnce)
  %.not.i.i.i = icmp eq i8 %10, 0
  br i1 %.not.i.i.i, label %_ZN6icu_77L10hasServiceEv.exit, label %11

11:                                               ; preds = %9
  %12 = tail call noundef ptr @_ZN6icu_777UMemorynwEm(i64 noundef 408) #16
  %13 = icmp eq ptr %12, null
  br i1 %13, label %_ZN6icu_77L11initServiceEv.exit.i.i, label %14

14:                                               ; preds = %11
  invoke void @_ZN6icu_7718ICUCollatorServiceC2Ev(ptr noundef nonnull align 8 dereferenceable(408) %12)
          to label %_ZN6icu_77L11initServiceEv.exit.i.i unwind label %15

common.resume:                                    ; preds = %25, %15
  %common.resume.op = phi { ptr, i32 } [ %16, %15 ], [ %26, %25 ]
  resume { ptr, i32 } %common.resume.op

15:                                               ; preds = %14
  %16 = landingpad { ptr, i32 }
          cleanup
  tail call void @_ZN6icu_777UMemorydlEPv(ptr noundef nonnull %12) #16
  br label %common.resume

_ZN6icu_77L11initServiceEv.exit.i.i:              ; preds = %14, %11
  store ptr %12, ptr @_ZL8gService, align 8, !tbaa !15
  tail call void @ucln_i18n_registerCleanup_77(i32 noundef 28, ptr noundef nonnull @_ZL16collator_cleanupv)
  tail call void @_ZN6icu_7721umtx_initImplPostInitERNS_9UInitOnceE(ptr noundef nonnull align 4 dereferenceable(8) @_ZL16gServiceInitOnce)
  br label %_ZN6icu_77L10hasServiceEv.exit

_ZN6icu_77L10hasServiceEv.exit:                   ; preds = %6, %9, %_ZN6icu_77L11initServiceEv.exit.i.i
  %17 = load ptr, ptr @_ZL8gService, align 8, !tbaa !15
  %.not9 = icmp eq ptr %17, null
  br i1 %.not9, label %_ZN6icu_77L10hasServiceEv.exit.thread, label %18

18:                                               ; preds = %_ZN6icu_77L10hasServiceEv.exit
  call void @llvm.lifetime.start.p0(i64 64, ptr nonnull %4) #16
  store ptr getelementptr inbounds nuw inrange(-16, 88) (i8, ptr @_ZTVN6icu_7713UnicodeStringE, i64 16), ptr %4, align 8, !tbaa !3
  %19 = getelementptr inbounds nuw i8, ptr %4, i64 8
  store i16 2, ptr %19, align 8, !tbaa !29
  %20 = invoke noundef nonnull align 8 dereferenceable(64) ptr @_ZN6icu_7713LocaleUtility18initNameFromLocaleERKNS_6LocaleERNS_13UnicodeStringE(ptr noundef nonnull align 8 dereferenceable(217) %0, ptr noundef nonnull align 8 dereferenceable(64) %4)
          to label %21 unwind label %25

21:                                               ; preds = %18
  %22 = load ptr, ptr @_ZL8gService, align 8, !tbaa !15
  %23 = invoke noundef nonnull align 8 dereferenceable(64) ptr @_ZNK6icu_7710ICUService14getDisplayNameERKNS_13UnicodeStringERS1_RKNS_6LocaleE(ptr noundef nonnull align 8 dereferenceable(120) %22, ptr noundef nonnull align 8 dereferenceable(64) %4, ptr noundef nonnull align 8 dereferenceable(64) %2, ptr noundef nonnull align 8 dereferenceable(217) %1)
          to label %24 unwind label %25

24:                                               ; preds = %21
  call void @_ZN6icu_7713UnicodeStringD1Ev(ptr noundef nonnull align 8 dereferenceable(64) %4) #16
  call void @llvm.lifetime.end.p0(i64 64, ptr nonnull %4) #16
  br label %28

25:                                               ; preds = %21, %18
  %26 = landingpad { ptr, i32 }
          cleanup
  call void @_ZN6icu_7713UnicodeStringD1Ev(ptr noundef nonnull align 8 dereferenceable(64) %4) #16
  call void @llvm.lifetime.end.p0(i64 64, ptr nonnull %4) #16
  br label %common.resume

_ZN6icu_77L10hasServiceEv.exit.thread:            ; preds = %3, %_ZN6icu_77L10hasServiceEv.exit
  %27 = tail call noundef nonnull align 8 dereferenceable(64) ptr @_ZNK6icu_776Locale14getDisplayNameERKS0_RNS_13UnicodeStringE(ptr noundef nonnull align 8 dereferenceable(217) %0, ptr noundef nonnull align 8 dereferenceable(217) %1, ptr noundef nonnull align 8 dereferenceable(64) %2)
  br label %28

28:                                               ; preds = %_ZN6icu_77L10hasServiceEv.exit.thread, %24
  %.0 = phi ptr [ %23, %24 ], [ %27, %_ZN6icu_77L10hasServiceEv.exit.thread ]
  ret ptr %.0
}